target datalayout = "e-m:e-p270:32:32-p271:32:32-p272:64:64-i64:64-i128:128-f80:128-n8:16:32:64-S128"
target triple = "x86_64-pc-linux-gnu"

%"class.sat::literal" = type { i32 }
%"class.euf::relevancy" = type { ptr, i8, %class.svector, %class.svector.0, i32, %class.svector.2, %"class.sat::clause_allocator", %class.ptr_vector.7, %class.svector.2, %class.vector.9, i32, %class.svector.10, %class.ptr_vector.12, %class.ptr_vector.12 }
%class.svector = type { %class.vector }
%class.vector = type { ptr }
%class.svector.0 = type { %class.vector.1 }
%class.vector.1 = type { ptr }
%"class.sat::clause_allocator" = type { %class.sat_allocator, %class.id_gen }
%class.sat_allocator = type { ptr, i64, %class.ptr_vector, ptr, [65 x %class.ptr_vector.5] }
%class.ptr_vector = type { %class.vector.4 }
%class.vector.4 = type { ptr }
%class.ptr_vector.5 = type { %class.vector.6 }
%class.vector.6 = type { ptr }
%class.id_gen = type { i32, %class.svector.0 }
%class.ptr_vector.7 = type { %class.vector.8 }
%class.vector.8 = type { ptr }
%class.svector.2 = type { %class.vector.3 }
%class.vector.3 = type { ptr }
%class.vector.9 = type { ptr }
%class.svector.10 = type { %class.vector.11 }
%class.vector.11 = type { ptr }
%class.ptr_vector.12 = type { %class.vector.13 }
%class.vector.13 = type { ptr }
%class.approx_set_tpl = type { i32 }
%"class.sat::extension" = type { ptr, i8, i32, %class.symbol, ptr }
%class.symbol = type { ptr }
%"class.sat::solver" = type { %"class.sat::solver_core", i8, [7 x i8], %"struct.sat::config", %"struct.sat::stats", %class.scoped_ptr.98, %class.scoped_ptr.99, ptr, %"class.sat::drat", [2 x %"class.sat::clause_allocator"], i8, %class.random_gen, %"class.sat::cleaner", %class.svector.106, %"class.sat::model_converter", i8, %"class.sat::simplifier", %"class.sat::scc", %"class.sat::asymm_branch", %"class.sat::probing", i8, [7 x i8], %"class.sat::mus", i8, i8, [6 x i8], %"class.sat::justification", %"class.sat::literal", %class.ptr_vector.7, %class.ptr_vector.7, i32, %class.svector.0, %class.svector.0, %class.svector.0, %class.svector.0, %class.vector.127, %class.svector.106, %class.svector.128, %class.svector.2, %class.svector.2, %class.svector.2, %class.svector.2, %class.svector.2, %class.svector.0, %class.svector.0, i32, %class.svector.59, %class.svector.0, i32, %class.svector.130, %class.svector.130, %class.svector.130, %class.svector.130, %class.svector.130, i32, double, %class.svector.2, %class.svector.2, %class.svector.2, i8, %class.svector.115, i32, i32, i32, i32, i32, i32, %"struct.sat::backoff", i32, i32, %"struct.sat::backoff", %"struct.sat::backoff", %class.var_queue, i32, i32, i32, %class.ema, %class.ema, %class.ema, %class.ema, %class.ema, %class.svector.59, %class.svector.117, %"class.std::__cxx11::basic_string", i8, i8, %class.visit_helper, %class.svector.132, %class.scoped_limit_trail, %class.stopwatch, %class.params_ref, %"struct.sat::no_drat_params", %class.scoped_ptr.134, %class.svector.59, %"class.sat::literal_set", %"class.sat::literal_set", %class.svector.59, i32, i32, i32, i32, i8, ptr, ptr, %class.statistics, i32, i32, i32, i32, i8, i32, i32, i32, i32, i32, i32, i32, double, i32, double, i8, i8, %class.svector.59, i8, %class.svector.130, i32, i32, i32, %class.svector.59, %class.svector.59, %class.svector.115, %class.svector.0, %class.approx_set_tpl, %class.svector.59, %class.svector.59, %class.vector.9, %class.svector.59, %class.svector.125, %class.u_map, %class.svector.59 }
%"class.sat::solver_core" = type { ptr, ptr }
%"struct.sat::config" = type <{ i64, i32, i32, i32, i8, [3 x i8], i32, i32, double, i32, i8, [3 x i8], i32, i8, [3 x i8], i32, [4 x i8], double, double, i32, i32, double, double, i32, [4 x i8], %class.symbol, double, i32, i32, i8, [3 x i8], i32, i32, i8, [3 x i8], i32, i8, [3 x i8], i32, i8, [3 x i8], i32, i8, i8, [2 x i8], i32, i8, i8, i8, i8, i8, i8, i8, i8, i32, i8, i8, i8, i8, i32, double, i32, [4 x i8], double, double, double, double, i32, i8, i8, [2 x i8], double, i8, i8, [2 x i8], i32, double, i32, i32, i32, i32, i32, i32, i32, i32, i8, i8, i8, i8, i32, i32, i8, i8, i8, i8, i8, i8, i8, [5 x i8], %class.symbol, i8, i8, i8, i8, i8, i8, [2 x i8], i32, i32, i32, i8, [3 x i8], double, double, double, double, double, i8, [7 x i8] }>
%"struct.sat::stats" = type { i32, i32, i32, i32, i32, i32, i32, i32, i32, i32, i32, i32, i32, i32, i32, i32, i32, i32, i32, i32, i32 }
%class.scoped_ptr.98 = type { ptr }
%class.scoped_ptr.99 = type { ptr }
%"class.sat::drat" = type { ptr, %class.svector.100, ptr, %"class.sat::clause_allocator", ptr, ptr, %class.svector.102, %class.svector.104, %class.vector.9, %class.svector.106, i8, i8, i8, i8, i8, %"struct.sat::drat::stats" }
%class.svector.100 = type { %class.vector.101 }
%class.vector.101 = type { ptr }
%class.svector.102 = type { %class.vector.103 }
%class.vector.103 = type { ptr }
%class.svector.104 = type { %class.vector.105 }
%class.vector.105 = type { ptr }
%"struct.sat::drat::stats" = type { i32, i32, i32, i32 }
%class.random_gen = type { i32 }
%"class.sat::cleaner" = type { ptr, i32, i32, i32, i32 }
%"class.sat::model_converter" = type { %class.vector.108, i32, %class.svector.2, ptr, %class.svector.109 }
%class.vector.108 = type { ptr }
%class.svector.109 = type { %class.vector.110 }
%class.vector.110 = type { ptr }
%"class.sat::simplifier" = type { ptr, i32, %"class.sat::use_list", %"class.sat::ext_use_list", %"class.sat::clause_set", %class.svector.113, i32, %class.tracked_uint_set, i8, %"class.sat::tmp_clause", %class.svector.115, i32, i32, i8, i8, i8, i8, i32, i8, i8, i32, i8, i32, i8, i8, i32, i32, i32, i32, i32, i32, i32, i32, i32, i32, i8, i32, i8, i8, i32, i32, i32, i32, i32, i32, i32, i32, i32, i32, i32, i8, i32, %class.ptr_vector.7, %class.svector.59, %class.svector.117, %class.svector.117, %class.svector.59 }
%"class.sat::use_list" = type { %class.vector.111 }
%class.vector.111 = type { ptr }
%"class.sat::ext_use_list" = type { %class.vector.112 }
%class.vector.112 = type { ptr }
%"class.sat::clause_set" = type { %class.svector.0, %class.ptr_vector.7 }
%class.svector.113 = type { %class.vector.114 }
%class.vector.114 = type { ptr }
%class.tracked_uint_set = type { %class.svector.115, %class.svector.0 }
%"class.sat::tmp_clause" = type { ptr }
%"class.sat::scc" = type { ptr, i8, i8, i32, i32, %"class.sat::big" }
%"class.sat::big" = type { ptr, i32, %class.vector.119, %class.svector.2, %class.svector.120, %class.svector.120, %class.svector.59, %class.svector.59, i8, i8, %class.vector.119 }
%class.svector.120 = type { %class.vector.121 }
%class.vector.121 = type { ptr }
%class.vector.119 = type { ptr }
%"class.sat::asymm_branch" = type { ptr, %class.params_ref, i64, %class.random_gen, i32, i32, i8, i32, i32, i8, i8, i64, i32, i32, i32, %class.svector.59, %class.svector.59, %class.svector.122, %class.svector.122, %class.svector.59, %class.svector.59 }
%class.svector.122 = type { %class.vector.123 }
%class.vector.123 = type { ptr }
%"class.sat::probing" = type { ptr, i32, %"class.sat::literal_set", %class.svector.59, i32, i8, i32, i8, i8, i64, i32, %class.vector.124, %class.svector.125, %"class.sat::big" }
%class.vector.124 = type { ptr }
%"class.sat::mus" = type <{ ptr, %class.svector.59, %class.svector.59, i8, [7 x i8], %class.svector.106, i32, [4 x i8] }>
%"class.sat::justification" = type <{ i32, [4 x i8], i64, i32, [4 x i8] }>
%class.vector.127 = type { ptr }
%class.svector.106 = type { %class.vector.107 }
%class.vector.107 = type { ptr }
%class.svector.128 = type { %class.vector.129 }
%class.vector.129 = type { ptr }
%"struct.sat::backoff" = type { i32, i32, i32, i32, i32 }
%class.var_queue = type { %class.heap }
%class.heap = type { %"struct.var_queue<svector<unsigned int>>::lt", %class.svector.120, %class.svector.120 }
%"struct.var_queue<svector<unsigned int>>::lt" = type { ptr }
%class.ema = type { double, double, double, i32, i32 }
%class.svector.117 = type { %class.vector.118 }
%class.vector.118 = type { ptr }
%"class.std::__cxx11::basic_string" = type { %"struct.std::__cxx11::basic_string<char>::_Alloc_hider", i64, %union.anon }
%"struct.std::__cxx11::basic_string<char>::_Alloc_hider" = type { ptr }
%union.anon = type { i64, [8 x i8] }
%class.visit_helper = type { %class.svector.0, i32, i32 }
%class.svector.132 = type { %class.vector.133 }
%class.vector.133 = type { ptr }
%class.scoped_limit_trail = type { %class.svector.0, i32, i32 }
%class.stopwatch = type <{ %"class.std::chrono::time_point", %"class.std::chrono::duration", i8, [7 x i8] }>
%"class.std::chrono::time_point" = type { %"class.std::chrono::duration" }
%"class.std::chrono::duration" = type { i64 }
%class.params_ref = type { ptr }
%"struct.sat::no_drat_params" = type { %class.params_ref }
%class.scoped_ptr.134 = type { ptr }
%"class.sat::literal_set" = type { %class.tracked_uint_set }
%class.statistics = type { %class.svector.135, %class.svector.137 }
%class.svector.135 = type { %class.vector.136 }
%class.vector.136 = type { ptr }
%class.svector.137 = type { %class.vector.138 }
%class.vector.138 = type { ptr }
%class.svector.130 = type { %class.vector.131 }
%class.vector.131 = type { ptr }
%class.svector.115 = type { %class.vector.116 }
%class.vector.116 = type { ptr }
%class.svector.125 = type { %class.vector.126 }
%class.vector.126 = type { ptr }
%class.u_map = type { %class.map.139 }
%class.map.139 = type { %class.table2map.140 }
%class.table2map.140 = type { %class.core_hashtable.141 }
%class.core_hashtable.141 = type <{ ptr, i32, i32, i32, [4 x i8] }>
%class.svector.59 = type { %class.vector.60 }
%class.vector.60 = type { ptr }

; Function Attrs: mustprogress nounwind uwtable
define linkonce_odr hidden noundef i32 @_ZNK6vectorIbLb0EjE4sizeEv(ptr noundef nonnull align 8 dereferenceable(8) %0) #6 comdat align 2 {
  %2 = alloca i32, align 4
  %3 = alloca ptr, align 8
  store ptr %0, ptr %3, align 8, !tbaa !66
  %4 = load ptr, ptr %3, align 8
  %5 = getelementptr inbounds nuw %class.vector.3, ptr %4, i32 0, i32 0
  %6 = load ptr, ptr %5, align 8, !tbaa !68
  %7 = icmp eq ptr %6, null
  br i1 %7, label %8, label %9

8:                                                ; preds = %1
  store i32 0, ptr %2, align 4
  br label %14

9:                                                ; preds = %1
  %10 = getelementptr inbounds nuw %class.vector.3, ptr %4, i32 0, i32 0
  %11 = load ptr, ptr %10, align 8, !tbaa !68
  %12 = getelementptr inbounds i32, ptr %11, i64 -1
  %13 = load i32, ptr %12, align 4, !tbaa !8
  store i32 %13, ptr %2, align 4
  br label %14

14:                                               ; preds = %9, %8
  %15 = load i32, ptr %2, align 4
  ret i32 %15
}

; Function Attrs: mustprogress nounwind uwtable
define linkonce_odr hidden noundef nonnull align 4 dereferenceable(4) ptr @_ZNK6vectorI5lboolLb0EjEixEj(ptr noundef nonnull align 8 dereferenceable(8) %0, i32 noundef %1) #6 comdat align 2 {
  %3 = alloca ptr, align 8
  %4 = alloca i32, align 4
  store ptr %0, ptr %3, align 8, !tbaa !518
  store i32 %1, ptr %4, align 4, !tbaa !8
  %5 = load ptr, ptr %3, align 8
  %6 = getelementptr inbounds nuw %class.vector.107, ptr %5, i32 0, i32 0
  %7 = load ptr, ptr %6, align 8, !tbaa !520
  %8 = load i32, ptr %4, align 4, !tbaa !8
  %9 = zext i32 %8 to i64
  %10 = getelementptr inbounds nuw i32, ptr %7, i64 %9
  ret ptr %10
}

; Function Attrs: mustprogress nounwind uwtable
define linkonce_odr hidden noundef i32 @_ZNK3sat7literal5indexEv(ptr noundef nonnull align 4 dereferenceable(4) %0) #6 comdat align 2 {
  %2 = alloca ptr, align 8
  store ptr %0, ptr %2, align 8, !tbaa !54
  %3 = load ptr, ptr %2, align 8
  %4 = getelementptr inbounds nuw %"class.sat::literal", ptr %3, i32 0, i32 0
  %5 = load i32, ptr %4, align 4, !tbaa !80
  ret i32 %5
}

; Function Attrs: mustprogress uwtable
define linkonce_odr hidden noundef nonnull align 1 dereferenceable(1) ptr @_ZNK6vectorIbLb0EjE3getEjRKb(ptr noundef nonnull align 8 dereferenceable(8) %0, i32 noundef %1, ptr noundef nonnull align 1 dereferenceable(1) %2) #4 comdat align 2 {
  %4 = alloca ptr, align 8
  %5 = alloca ptr, align 8
  %6 = alloca i32, align 4
  %7 = alloca ptr, align 8
  store ptr %0, ptr %5, align 8, !tbaa !66
  store i32 %1, ptr %6, align 4, !tbaa !8
  store ptr %2, ptr %7, align 8, !tbaa !98
  %8 = load ptr, ptr %5, align 8
  %9 = load i32, ptr %6, align 4, !tbaa !8
  %10 = call noundef i32 @_ZNK6vectorIbLb0EjE4sizeEv(ptr noundef nonnull align 8 dereferenceable(8) %8)
  %11 = icmp uge i32 %9, %10
  br i1 %11, label %12, label %14

12:                                               ; preds = %3
  %13 = load ptr, ptr %7, align 8, !tbaa !98
  store ptr %13, ptr %4, align 8
  br label %20

14:                                               ; preds = %3
  %15 = getelementptr inbounds nuw %class.vector.3, ptr %8, i32 0, i32 0
  %16 = load ptr, ptr %15, align 8, !tbaa !68
  %17 = load i32, ptr %6, align 4, !tbaa !8
  %18 = zext i32 %17 to i64
  %19 = getelementptr inbounds nuw i8, ptr %16, i64 %18
  store ptr %19, ptr %4, align 8
  br label %20

20:                                               ; preds = %14, %12
  %21 = load ptr, ptr %4, align 8
  ret ptr %21
}

; Function Attrs: mustprogress nounwind uwtable
define linkonce_odr hidden i32 @_ZN3satcoENS_7literalE(i32 %0) #6 comdat {
  %2 = alloca %"class.sat::literal", align 4
  %3 = alloca %"class.sat::literal", align 4
  %4 = getelementptr inbounds nuw %"class.sat::literal", ptr %3, i32 0, i32 0
  store i32 %0, ptr %4, align 4
  %5 = getelementptr inbounds nuw %"class.sat::literal", ptr %3, i32 0, i32 0
  %6 = load i32, ptr %5, align 4, !tbaa !80
  %7 = xor i32 %6, 1
  %8 = getelementptr inbounds nuw %"class.sat::literal", ptr %3, i32 0, i32 0
  store i32 %7, ptr %8, align 4, !tbaa !80
  call void @llvm.memcpy.p0.p0.i64(ptr align 4 %2, ptr align 4 %3, i64 4, i1 false), !tbaa.struct !56
  %9 = getelementptr inbounds nuw %"class.sat::literal", ptr %2, i32 0, i32 0
  %10 = load i32, ptr %9, align 4
  ret i32 %10
}

; Function Attrs: mustprogress uwtable
define linkonce_odr hidden noundef i32 @_ZNK3sat6solver5valueENS_7literalE(ptr noundef nonnull align 8 dereferenceable(4264) %0, i32 %1) #4 comdat align 2 {
  %3 = alloca %"class.sat::literal", align 4
  %4 = alloca ptr, align 8
  %5 = getelementptr inbounds nuw %"class.sat::literal", ptr %3, i32 0, i32 0
  store i32 %1, ptr %5, align 4
  store ptr %0, ptr %4, align 8, !tbaa !94
  %6 = load ptr, ptr %4, align 8
  %7 = getelementptr inbounds nuw %"class.sat::solver", ptr %6, i32 0, i32 36
  %8 = call noundef i32 @_ZNK3sat7literal5indexEv(ptr noundef nonnull align 4 dereferenceable(4) %3)
  %9 = call noundef nonnull align 4 dereferenceable(4) ptr @_ZNK6vectorI5lboolLb0EjEixEj(ptr noundef nonnull align 8 dereferenceable(8) %7, i32 noundef %8)
  %10 = load i32, ptr %9, align 4, !tbaa !95
  ret i32 %10
}

; Function Attrs: mustprogress nounwind uwtable
define linkonce_odr hidden noundef nonnull align 8 dereferenceable(4264) ptr @_ZN3sat9extension1sEv(ptr noundef nonnull align 8 dereferenceable(32) %0) #6 comdat align 2 {
  %2 = alloca ptr, align 8
  store ptr %0, ptr %2, align 8, !tbaa !88
  %3 = load ptr, ptr %2, align 8
  %4 = getelementptr inbounds nuw %"class.sat::extension", ptr %3, i32 0, i32 4
  %5 = load ptr, ptr %4, align 8, !tbaa !90
  ret ptr %5
}

; Function Attrs: mustprogress nounwind uwtable
define linkonce_odr hidden void @_ZN3sat7literalC2Ejb(ptr noundef nonnull align 4 dereferenceable(4) %0, i32 noundef %1, i1 noundef zeroext %2) unnamed_addr #6 comdat align 2 {
  %4 = alloca ptr, align 8
  %5 = alloca i32, align 4
  %6 = alloca i8, align 1
  store ptr %0, ptr %4, align 8, !tbaa !54
  store i32 %1, ptr %5, align 4, !tbaa !8
  %7 = zext i1 %2 to i8
  store i8 %7, ptr %6, align 1, !tbaa !51
  %8 = load ptr, ptr %4, align 8
  %9 = getelementptr inbounds nuw %"class.sat::literal", ptr %8, i32 0, i32 0
  %10 = load i32, ptr %5, align 4, !tbaa !8
  %11 = shl i32 %10, 1
  %12 = load i8, ptr %6, align 1, !tbaa !51, !range !43, !noundef !44
  %13 = trunc i8 %12 to i1
  %14 = zext i1 %13 to i32
  %15 = add i32 %11, %14
  store i32 %15, ptr %9, align 4, !tbaa !80
  ret void
}

; Function Attrs: mustprogress uwtable
define linkonce_odr hidden noundef zeroext i1 @_ZNK3euf9relevancy11is_relevantEj(ptr noundef nonnull align 8 dereferenceable(672) %0, i32 noundef %1) #4 comdat align 2 {
  %3 = alloca ptr, align 8
  %4 = alloca i32, align 4
  %5 = alloca i8, align 1
  store ptr %0, ptr %3, align 8, !tbaa !3
  store i32 %1, ptr %4, align 4, !tbaa !8
  %6 = load ptr, ptr %3, align 8
  %7 = getelementptr inbounds nuw %"class.euf::relevancy", ptr %6, i32 0, i32 1
  %8 = load i8, ptr %7, align 8, !tbaa !10, !range !43, !noundef !44
  %9 = trunc i8 %8 to i1
  call void @llvm.lifetime.start.p0(i64 1, ptr %5) #3
  br i1 %9, label %10, label %16

10:                                               ; preds = %2
  %11 = getelementptr inbounds nuw %"class.euf::relevancy", ptr %6, i32 0, i32 5
  %12 = load i32, ptr %4, align 4, !tbaa !8
  store i8 0, ptr %5, align 1, !tbaa !51
  %13 = call noundef nonnull align 1 dereferenceable(1) ptr @_ZNK6vectorIbLb0EjE3getEjRKb(ptr noundef nonnull align 8 dereferenceable(8) %11, i32 noundef %12, ptr noundef nonnull align 1 dereferenceable(1) %5)
  %14 = load i8, ptr %13, align 1, !tbaa !51, !range !43, !noundef !44
  %15 = trunc i8 %14 to i1
  br label %16

16:                                               ; preds = %10, %2
  %17 = phi i1 [ true, %2 ], [ %15, %10 ]
  call void @llvm.lifetime.end.p0(i64 1, ptr %5) #3
  ret i1 %17
}

; Function Attrs: mustprogress uwtable
define hidden void @_ZN3euf9relevancy11relevant_ehEj(ptr noundef nonnull align 8 dereferenceable(672) %0, i32 noundef %1) #4 align 2 {
  %3 = alloca ptr, align 8
  %4 = alloca i32, align 4
  %5 = alloca %"class.sat::literal", align 4
  %6 = alloca %"class.sat::literal", align 4
  %7 = alloca %"class.sat::literal", align 4
  %8 = alloca %"class.sat::literal", align 4
  %9 = alloca %"class.sat::literal", align 4
  %10 = alloca %"class.sat::literal", align 4
  store ptr %0, ptr %3, align 8, !tbaa !3
  store i32 %1, ptr %4, align 4, !tbaa !8
  %11 = load ptr, ptr %3, align 8
  %12 = load i32, ptr %4, align 4, !tbaa !8
  %13 = call noundef zeroext i1 @_ZNK3euf9relevancy11is_relevantEj(ptr noundef nonnull align 8 dereferenceable(672) %11, i32 noundef %12)
  br i1 %13, label %14, label %15

14:                                               ; preds = %2
  br label %37

15:                                               ; preds = %2
  call void @llvm.lifetime.start.p0(i64 4, ptr %5) #3
  %16 = load i32, ptr %4, align 4, !tbaa !8
  call void @_ZN3sat7literalC2Ejb(ptr noundef nonnull align 4 dereferenceable(4) %5, i32 noundef %16, i1 noundef zeroext false)
  %17 = getelementptr inbounds nuw %"class.euf::relevancy", ptr %11, i32 0, i32 0
  %18 = load ptr, ptr %17, align 8, !tbaa !83
  %19 = call noundef nonnull align 8 dereferenceable(4264) ptr @_ZN3sat9extension1sEv(ptr noundef nonnull align 8 dereferenceable(32) %18)
  call void @llvm.memcpy.p0.p0.i64(ptr align 4 %6, ptr align 4 %5, i64 4, i1 false), !tbaa.struct !56
  %20 = getelementptr inbounds nuw %"class.sat::literal", ptr %6, i32 0, i32 0
  %21 = load i32, ptr %20, align 4
  %22 = call noundef i32 @_ZNK3sat6solver5valueENS_7literalE(ptr noundef nonnull align 8 dereferenceable(4264) %19, i32 %21)
  switch i32 %22, label %36 [
    i32 0, label %23
    i32 1, label %26
    i32 -1, label %29
  ]

23:                                               ; preds = %15
  call void @llvm.memcpy.p0.p0.i64(ptr align 4 %7, ptr align 4 %5, i64 4, i1 false), !tbaa.struct !56
  %24 = getelementptr inbounds nuw %"class.sat::literal", ptr %7, i32 0, i32 0
  %25 = load i32, ptr %24, align 4
  call void @_ZN3euf9relevancy12set_relevantEN3sat7literalE(ptr noundef nonnull align 8 dereferenceable(672) %11, i32 %25)
  br label %36

26:                                               ; preds = %15
  call void @llvm.memcpy.p0.p0.i64(ptr align 4 %8, ptr align 4 %5, i64 4, i1 false), !tbaa.struct !56
  %27 = getelementptr inbounds nuw %"class.sat::literal", ptr %8, i32 0, i32 0
  %28 = load i32, ptr %27, align 4
  call void @_ZN3euf9relevancy12set_assertedEN3sat7literalE(ptr noundef nonnull align 8 dereferenceable(672) %11, i32 %28)
  br label %36

29:                                               ; preds = %15
  call void @llvm.memcpy.p0.p0.i64(ptr align 4 %10, ptr align 4 %5, i64 4, i1 false), !tbaa.struct !56
  %30 = getelementptr inbounds nuw %"class.sat::literal", ptr %10, i32 0, i32 0
  %31 = load i32, ptr %30, align 4
  %32 = call i32 @_ZN3satcoENS_7literalE(i32 %31)
  %33 = getelementptr inbounds nuw %"class.sat::literal", ptr %9, i32 0, i32 0
  store i32 %32, ptr %33, align 4
  %34 = getelementptr inbounds nuw %"class.sat::literal", ptr %9, i32 0, i32 0
  %35 = load i32, ptr %34, align 4
  call void @_ZN3euf9relevancy12set_assertedEN3sat7literalE(ptr noundef nonnull align 8 dereferenceable(672) %11, i32 %35)
  br label %36

36:                                               ; preds = %15, %29, %26, %23
  call void @llvm.lifetime.end.p0(i64 4, ptr %5) #3
  br label %37

37:                                               ; preds = %36, %14
  ret void
}