; Function Attrs: mustprogress uwtable
define hidden void @_ZN3euf9relevancy11relevant_ehEj(ptr noundef nonnull align 8 dereferenceable(672) %0, i32 noundef %1) local_unnamed_addr #3 align 2 {
  %3 = getelementptr inbounds nuw i8, ptr %0, i64 8
  %4 = load i8, ptr %3, align 8, !tbaa !3, !range !40, !noundef !41
  %5 = trunc nuw i8 %4 to i1
  br i1 %5, label %6, label %_ZNK3euf9relevancy11is_relevantEj.exit.thread9

6:                                                ; preds = %2
  %7 = getelementptr inbounds nuw i8, ptr %0, i64 40
  %8 = load ptr, ptr %7, align 8, !tbaa !48
  %9 = icmp eq ptr %8, null
  br i1 %9, label %_ZNK3euf9relevancy11is_relevantEj.exit.thread, label %_ZNK6vectorIbLb0EjE3getEjRKb.exit.i

_ZNK6vectorIbLb0EjE3getEjRKb.exit.i:              ; preds = %6
  %10 = getelementptr inbounds i8, ptr %8, i64 -4
  %11 = load i32, ptr %10, align 4, !tbaa !44
  %.not.i.i = icmp ult i32 %1, %11
  br i1 %.not.i.i, label %_ZNK3euf9relevancy11is_relevantEj.exit, label %_ZNK3euf9relevancy11is_relevantEj.exit.thread

_ZNK3euf9relevancy11is_relevantEj.exit:           ; preds = %_ZNK6vectorIbLb0EjE3getEjRKb.exit.i
  %12 = zext i32 %1 to i64
  %13 = getelementptr inbounds nuw i8, ptr %8, i64 %12
  %.then.val.i = load i8, ptr %13, align 1, !tbaa !49, !range !40, !noundef !41
  %14 = trunc nuw i8 %.then.val.i to i1
  br i1 %14, label %_ZNK3euf9relevancy11is_relevantEj.exit.thread9, label %_ZNK3euf9relevancy11is_relevantEj.exit.thread

_ZNK3euf9relevancy11is_relevantEj.exit.thread:    ; preds = %6, %_ZNK6vectorIbLb0EjE3getEjRKb.exit.i, %_ZNK3euf9relevancy11is_relevantEj.exit
  %15 = shl i32 %1, 1
  %16 = load ptr, ptr %0, align 8, !tbaa !62
  %17 = getelementptr inbounds nuw i8, ptr %16, i64 24
  %18 = load ptr, ptr %17, align 8, !tbaa !63
  %19 = getelementptr inbounds nuw i8, ptr %18, i64 3288
  %20 = load ptr, ptr %19, align 8, !tbaa !67
  %21 = zext i32 %15 to i64
  %22 = getelementptr inbounds nuw i32, ptr %20, i64 %21
  %23 = load i32, ptr %22, align 4, !tbaa !69
  switch i32 %23, label %_ZNK3euf9relevancy11is_relevantEj.exit.thread9 [
    i32 0, label %24
    i32 1, label %25
    i32 -1, label %26
  ]

24:                                               ; preds = %_ZNK3euf9relevancy11is_relevantEj.exit.thread
  tail call void @_ZN3euf9relevancy12set_relevantEN3sat7literalE(ptr noundef nonnull align 8 dereferenceable(672) %0, i32 %15)
  br label %_ZNK3euf9relevancy11is_relevantEj.exit.thread9

25:                                               ; preds = %_ZNK3euf9relevancy11is_relevantEj.exit.thread
  tail call void @_ZN3euf9relevancy12set_assertedEN3sat7literalE(ptr noundef nonnull align 8 dereferenceable(672) %0, i32 %15)
  br label %_ZNK3euf9relevancy11is_relevantEj.exit.thread9

26:                                               ; preds = %_ZNK3euf9relevancy11is_relevantEj.exit.thread
  %27 = or disjoint i32 %15, 1
  tail call void @_ZN3euf9relevancy12set_assertedEN3sat7literalE(ptr noundef nonnull align 8 dereferenceable(672) %0, i32 %27)
  br label %_ZNK3euf9relevancy11is_relevantEj.exit.thread9

_ZNK3euf9relevancy11is_relevantEj.exit.thread9:   ; preds = %2, %_ZNK3euf9relevancy11is_relevantEj.exit.thread, %24, %25, %26, %_ZNK3euf9relevancy11is_relevantEj.exit
  ret void
}